; Function Attrs: mustprogress uwtable
define void @_ZN29MLPoliciesStandAloneFunctions45maskMeaninglessAttributesPerPrimitiveModalityEN3vcg20GLMeshAttributesInfo18PRIMITIVE_MODALITYERNS1_13RenderingAttsINS1_9ATT_NAMESEEE(i32 noundef %0, ptr nocapture noundef nonnull writeonly align 1 dereferenceable(7) %1) local_unnamed_addr #9 align 2 personality ptr @__gxx_personality_v0 {
  %3 = alloca %class.QString, align 8
  switch i32 %0, label %19 [
    i32 0, label %.sink.split
    i32 1, label %4
    i32 2, label %4
    i32 4, label %6
  ]

4:                                                ; preds = %2, %2
  %5 = getelementptr inbounds i8, ptr %1, i64 2
  store i8 0, ptr %5, align 1
  br label %.sink.split

6:                                                ; preds = %2
  %7 = tail call ptr @__cxa_allocate_exception(i64 24) #22
  %8 = invoke noundef ptr @_ZN7QString16fromAscii_helperEPKci(ptr noundef nonnull @.str.8, i32 noundef 29)
          to label %9 unwind label %.thread

9:                                                ; preds = %6
  store ptr %8, ptr %3, align 8
  invoke void @_ZN11MLExceptionC2ERK7QString(ptr noundef nonnull align 8 dereferenceable(24) %7, ptr noundef nonnull align 8 dereferenceable(8) %3)
          to label %11 unwind label %.thread17

.thread17:                                        ; preds = %9
  %10 = landingpad { ptr, i32 }
          cleanup
  call void @_ZN7QStringD2Ev(ptr noundef nonnull align 8 dereferenceable(8) %3) #22
  br label %15

11:                                               ; preds = %9
  invoke void @__cxa_throw(ptr nonnull %7, ptr nonnull @_ZTI11MLException, ptr nonnull @_ZN11MLExceptionD2Ev) #26
          to label %21 unwind label %13

.thread:                                          ; preds = %6
  %12 = landingpad { ptr, i32 }
          cleanup
  br label %15

13:                                               ; preds = %11
  %14 = landingpad { ptr, i32 }
          cleanup
  call void @_ZN7QStringD2Ev(ptr noundef nonnull align 8 dereferenceable(8) %3) #22
  br label %20

15:                                               ; preds = %.thread17, %.thread
  %.pn16 = phi { ptr, i32 } [ %12, %.thread ], [ %10, %.thread17 ]
  call void @__cxa_free_exception(ptr %7) #22
  br label %20

.sink.split:                                      ; preds = %2, %4
  %.sink20 = phi i64 [ 4, %4 ], [ 2, %2 ]
  %.sink19 = phi i64 [ 5, %4 ], [ 4, %2 ]
  %16 = getelementptr inbounds i8, ptr %1, i64 %.sink20
  store i8 0, ptr %16, align 1
  %17 = getelementptr inbounds i8, ptr %1, i64 %.sink19
  store i8 0, ptr %17, align 1
  %18 = getelementptr inbounds i8, ptr %1, i64 6
  store i8 0, ptr %18, align 1
  br label %19

19:                                               ; preds = %.sink.split, %2
  ret void

20:                                               ; preds = %13, %15
  %.pn15 = phi { ptr, i32 } [ %14, %13 ], [ %.pn16, %15 ]
  resume { ptr, i32 } %.pn15

21:                                               ; preds = %11
  unreachable
}